; ModuleID = '38/41.c'
source_filename = "38/41.c"
target datalayout = "e-m:e-p270:32:32-p271:32:32-p272:64:64-i64:64-f80:128-n8:16:32:64-S128"
target triple = "x86_64-pc-linux-gnu"

@.str = private unnamed_addr constant [3 x i8] c"%d\00", align 1
@.str.1 = private unnamed_addr constant [4 x i8] c"%lf\00", align 1
@.str.2 = private unnamed_addr constant [7 x i8] c"%.5lf\0A\00", align 1

; Function Attrs: noinline nounwind uwtable
define dso_local i32 @main() #0 {
  %1 = alloca i32, align 4
  %2 = alloca i32, align 4
  %3 = alloca i32, align 4
  %4 = alloca i32, align 4
  %5 = alloca [1000 x double], align 16
  %6 = alloca double, align 8
  %7 = alloca double, align 8
  %8 = alloca double, align 8
  %9 = alloca double, align 8
  %10 = alloca i32, align 4
  %11 = alloca double*, align 8
  store i32 0, i32* %1, align 4
  store double 0.000000e+00, double* %7, align 8
  store double 0.000000e+00, double* %9, align 8
  %12 = call i32 (i8*, ...) @__isoc99_scanf(i8* getelementptr inbounds ([3 x i8], [3 x i8]* @.str, i64 0, i64 0), i32* %2)
  store i32 0, i32* %3, align 4
  br label %13

13:                                               ; preds = %84, %0
  %14 = load i32, i32* %3, align 4
  %15 = load i32, i32* %2, align 4
  %16 = icmp slt i32 %14, %15
  br i1 %16, label %17, label %87

17:                                               ; preds = %13
  store double 0.000000e+00, double* %9, align 8
  store double 0.000000e+00, double* %7, align 8
  %18 = call i32 (i8*, ...) @__isoc99_scanf(i8* getelementptr inbounds ([3 x i8], [3 x i8]* @.str, i64 0, i64 0), i32* %10)
  store i32 0, i32* %4, align 4
  br label %19

19:                                               ; preds = %28, %17
  %20 = load i32, i32* %4, align 4
  %21 = load i32, i32* %10, align 4
  %22 = icmp slt i32 %20, %21
  br i1 %22, label %23, label %31

23:                                               ; preds = %19
  %24 = load i32, i32* %4, align 4
  %25 = sext i32 %24 to i64
  %26 = getelementptr inbounds [1000 x double], [1000 x double]* %5, i64 0, i64 %25
  %27 = call i32 (i8*, ...) @__isoc99_scanf(i8* getelementptr inbounds ([4 x i8], [4 x i8]* @.str.1, i64 0, i64 0), double* %26)
  br label %28

28:                                               ; preds = %23
  %29 = load i32, i32* %4, align 4
  %30 = add nsw i32 %29, 1
  store i32 %30, i32* %4, align 4
  br label %19

31:                                               ; preds = %19
  %32 = getelementptr inbounds [1000 x double], [1000 x double]* %5, i64 0, i64 0
  store double* %32, double** %11, align 8
  br label %33

33:                                               ; preds = %45, %31
  %34 = load double*, double** %11, align 8
  %35 = getelementptr inbounds [1000 x double], [1000 x double]* %5, i64 0, i64 0
  %36 = load i32, i32* %10, align 4
  %37 = sext i32 %36 to i64
  %38 = getelementptr inbounds double, double* %35, i64 %37
  %39 = icmp ult double* %34, %38
  br i1 %39, label %40, label %48

40:                                               ; preds = %33
  %41 = load double*, double** %11, align 8
  %42 = load double, double* %41, align 8
  %43 = load double, double* %9, align 8
  %44 = fadd double %43, %42
  store double %44, double* %9, align 8
  br label %45

45:                                               ; preds = %40
  %46 = load double*, double** %11, align 8
  %47 = getelementptr inbounds double, double* %46, i32 1
  store double* %47, double** %11, align 8
  br label %33

48:                                               ; preds = %33
  %49 = load double, double* %9, align 8
  %50 = load i32, i32* %10, align 4
  %51 = sitofp i32 %50 to double
  %52 = fdiv double %49, %51
  store double %52, double* %6, align 8
  %53 = getelementptr inbounds [1000 x double], [1000 x double]* %5, i64 0, i64 0
  store double* %53, double** %11, align 8
  br label %54

54:                                               ; preds = %73, %48
  %55 = load double*, double** %11, align 8
  %56 = getelementptr inbounds [1000 x double], [1000 x double]* %5, i64 0, i64 0
  %57 = load i32, i32* %10, align 4
  %58 = sext i32 %57 to i64
  %59 = getelementptr inbounds double, double* %56, i64 %58
  %60 = icmp ult double* %55, %59
  br i1 %60, label %61, label %76

61:                                               ; preds = %54
  %62 = load double*, double** %11, align 8
  %63 = load double, double* %62, align 8
  %64 = load double, double* %6, align 8
  %65 = fsub double %63, %64
  %66 = load double*, double** %11, align 8
  %67 = load double, double* %66, align 8
  %68 = load double, double* %6, align 8
  %69 = fsub double %67, %68
  %70 = fmul double %65, %69
  %71 = load double, double* %7, align 8
  %72 = fadd double %71, %70
  store double %72, double* %7, align 8
  br label %73

73:                                               ; preds = %61
  %74 = load double*, double** %11, align 8
  %75 = getelementptr inbounds double, double* %74, i32 1
  store double* %75, double** %11, align 8
  br label %54

76:                                               ; preds = %54
  %77 = load double, double* %7, align 8
  %78 = load i32, i32* %10, align 4
  %79 = sitofp i32 %78 to double
  %80 = fdiv double %77, %79
  %81 = call double @sqrt(double %80) #3
  store double %81, double* %8, align 8
  %82 = load double, double* %8, align 8
  %83 = call i32 (i8*, ...) @printf(i8* getelementptr inbounds ([7 x i8], [7 x i8]* @.str.2, i64 0, i64 0), double %82)
  br label %84

84:                                               ; preds = %76
  %85 = load i32, i32* %3, align 4
  %86 = add nsw i32 %85, 1
  store i32 %86, i32* %3, align 4
  br label %13

87:                                               ; preds = %13
  ret i32 0
}

declare dso_local i32 @__isoc99_scanf(i8*, ...) #1

; Function Attrs: nounwind
declare dso_local double @sqrt(double) #2

declare dso_local i32 @printf(i8*, ...) #1


!llvm.module.flags = !{!0}
!llvm.ident = !{!1}

!0 = !{i32 1, !"wchar_size", i32 4}
!1 = !{!"clang version 10.0.0-4ubuntu1 "}
